target datalayout = "e-m:e-p270:32:32-p271:32:32-p272:64:64-i64:64-i128:128-f80:128-n8:16:32:64-S128"
target triple = "x86_64-pc-linux-gnu"

@hwloc_libxml2_needs_cleanup = internal global i32 0, align 4
@.str.16 = private unnamed_addr constant [6 x i8] c"UTF-8\00", align 1

; Function Attrs: nounwind uwtable
define internal void @hwloc_libxml2_cleanup() #0 {
  %1 = load i32, ptr @hwloc_libxml2_needs_cleanup, align 4, !tbaa !12
  %2 = icmp ne i32 %1, 0
  br i1 %2, label %3, label %4

3:                                                ; preds = %0
  call void @xmlCleanupParser()
  br label %4

4:                                                ; preds = %3, %0
  ret void
}

; Function Attrs: nounwind uwtable
define internal i32 @hwloc_libxml_export_diff_buffer(ptr noundef %0, ptr noundef %1, ptr noundef %2, ptr noundef %3) #0 {
  %5 = alloca i32, align 4
  %6 = alloca ptr, align 8
  %7 = alloca ptr, align 8
  %8 = alloca ptr, align 8
  %9 = alloca ptr, align 8
  %10 = alloca ptr, align 8
  %11 = alloca i32, align 4
  store ptr %0, ptr %6, align 8, !tbaa !61
  store ptr %1, ptr %7, align 8, !tbaa !7
  store ptr %2, ptr %8, align 8, !tbaa !25
  store ptr %3, ptr %9, align 8, !tbaa !27
  call void @llvm.lifetime.start.p0(i64 8, ptr %10) #7
  %12 = load ptr, ptr %6, align 8, !tbaa !61
  %13 = load ptr, ptr %7, align 8, !tbaa !7
  %14 = call ptr @hwloc__libxml2_prepare_export_diff(ptr noundef %12, ptr noundef %13)
  store ptr %14, ptr %10, align 8, !tbaa !14
  %15 = load ptr, ptr %10, align 8, !tbaa !14
  %16 = load ptr, ptr %8, align 8, !tbaa !25
  %17 = load ptr, ptr %9, align 8, !tbaa !27
  call void @xmlDocDumpFormatMemoryEnc(ptr noundef %15, ptr noundef %16, ptr noundef %17, ptr noundef @.str.16, i32 noundef 1)
  %18 = load ptr, ptr %10, align 8, !tbaa !14
  call void @xmlFreeDoc(ptr noundef %18)
  call void @hwloc_libxml2_cleanup()
  %19 = load ptr, ptr %8, align 8, !tbaa !25
  %20 = load ptr, ptr %19, align 8, !tbaa !7
  %21 = icmp ne ptr %20, null
  br i1 %21, label %24, label %22

22:                                               ; preds = %4
  %23 = load ptr, ptr %9, align 8, !tbaa !27
  store i32 0, ptr %23, align 4, !tbaa !12
  store i32 -1, ptr %5, align 4
  store i32 1, ptr %11, align 4
  br label %28

24:                                               ; preds = %4
  %25 = load ptr, ptr %9, align 8, !tbaa !27
  %26 = load i32, ptr %25, align 4, !tbaa !12
  %27 = add nsw i32 %26, 1
  store i32 %27, ptr %25, align 4, !tbaa !12
  store i32 0, ptr %5, align 4
  store i32 1, ptr %11, align 4
  br label %28

28:                                               ; preds = %24, %22
  call void @llvm.lifetime.end.p0(i64 8, ptr %10) #7
  %29 = load i32, ptr %5, align 4
  ret i32 %29
}