; Function Attrs: nounwind uwtable
define internal range(i32 -1, 1) i32 @hwloc_libxml_export_diff_buffer(ptr noundef %0, ptr noundef %1, ptr noundef %2, ptr noundef %3) #1 {
  %5 = tail call fastcc ptr @hwloc__libxml2_prepare_export_diff(ptr noundef %0, ptr noundef %1)
  tail call void @xmlDocDumpFormatMemoryEnc(ptr noundef %5, ptr noundef %2, ptr noundef %3, ptr noundef nonnull @.str.16, i32 noundef 1) #11
  tail call void @xmlFreeDoc(ptr noundef %5) #11
  %.b.i = load i1, ptr @hwloc_libxml2_needs_cleanup, align 4
  br i1 %.b.i, label %6, label %hwloc_libxml2_cleanup.exit

6:                                                ; preds = %4
  tail call void @xmlCleanupParser() #11
  br label %hwloc_libxml2_cleanup.exit

hwloc_libxml2_cleanup.exit:                       ; preds = %4, %6
  %7 = load ptr, ptr %2, align 8, !tbaa !15
  %.not = icmp eq ptr %7, null
  br i1 %.not, label %11, label %8

8:                                                ; preds = %hwloc_libxml2_cleanup.exit
  %9 = load i32, ptr %3, align 4, !tbaa !7
  %10 = add nsw i32 %9, 1
  br label %11

11:                                               ; preds = %hwloc_libxml2_cleanup.exit, %8
  %storemerge = phi i32 [ %10, %8 ], [ 0, %hwloc_libxml2_cleanup.exit ]
  %.0 = phi i32 [ 0, %8 ], [ -1, %hwloc_libxml2_cleanup.exit ]
  store i32 %storemerge, ptr %3, align 4, !tbaa !7
  ret i32 %.0
}